target datalayout = "e-m:e-p270:32:32-p271:32:32-p272:64:64-i64:64-i128:128-f80:128-n8:16:32:64-S128"
target triple = "x86_64-pc-linux-gnu"

%struct.AVCodecContext = type { ptr, i32, i32, ptr, i32, i32, ptr, ptr, ptr, i64, i32, i32, ptr, i32, %struct.AVRational, %struct.AVRational, %struct.AVRational, i32, i32, i32, i32, i32, %struct.AVRational, i32, i32, i32, i32, i32, i32, i32, i32, i32, i32, i32, ptr, ptr, i32, float, float, float, float, float, float, float, float, float, i32, i32, i32, i32, i32, i32, i32, i32, i32, i32, i32, i32, ptr, ptr, ptr, i32, i32, i32, i32, i32, i32, i32, i32, i32, i32, %struct.AVChannelLayout, i32, i32, i32, i32, i32, i32, i32, i32, ptr, i32, i32, i32, float, float, i32, i32, i32, i32, i32, ptr, i64, i64, float, float, i32, i32, ptr, ptr, i32, i32, i32, i32, i32, ptr, ptr, ptr, ptr, i32, i32, [8 x i64], i32, i32, i32, i32, i32, i32, i32, ptr, ptr, i32, i32, i32, i32, i32, i32, i32, i32, i32, i32, ptr, ptr, i32, i32, ptr, ptr, ptr, ptr, i32, i32, i64, i32, i32, i64, ptr, i64, ptr, i32, ptr, i32 }
%struct.AVRational = type { i32, i32 }
%struct.AVChannelLayout = type { i32, i32, %union.anon.0, ptr }
%union.anon.0 = type { i64 }
%struct.UltimotionDecodeContext = type { ptr, i32, i32, i32, ptr, ptr, %struct.GetByteContext }
%struct.GetByteContext = type { ptr, ptr, ptr }

; Function Attrs: cold nounwind optsize uwtable
define internal i32 @ulti_decode_init(ptr noundef %0) #0 {
  %2 = alloca i32, align 4
  %3 = alloca ptr, align 8
  %4 = alloca ptr, align 8
  %5 = alloca i32, align 4
  store ptr %0, ptr %3, align 8, !tbaa !4
  call void @llvm.lifetime.start.p0(i64 8, ptr %4) #7
  %6 = load ptr, ptr %3, align 8, !tbaa !4
  %7 = getelementptr inbounds nuw %struct.AVCodecContext, ptr %6, i32 0, i32 6
  %8 = load ptr, ptr %7, align 8, !tbaa !9
  store ptr %8, ptr %4, align 8, !tbaa !29
  %9 = load ptr, ptr %3, align 8, !tbaa !4
  %10 = load ptr, ptr %4, align 8, !tbaa !29
  %11 = getelementptr inbounds nuw %struct.UltimotionDecodeContext, ptr %10, i32 0, i32 0
  store ptr %9, ptr %11, align 8, !tbaa !31
  %12 = load ptr, ptr %3, align 8, !tbaa !4
  %13 = getelementptr inbounds nuw %struct.AVCodecContext, ptr %12, i32 0, i32 18
  %14 = load i32, ptr %13, align 8, !tbaa !35
  %15 = load ptr, ptr %4, align 8, !tbaa !29
  %16 = getelementptr inbounds nuw %struct.UltimotionDecodeContext, ptr %15, i32 0, i32 1
  store i32 %14, ptr %16, align 8, !tbaa !36
  %17 = load ptr, ptr %3, align 8, !tbaa !4
  %18 = getelementptr inbounds nuw %struct.AVCodecContext, ptr %17, i32 0, i32 19
  %19 = load i32, ptr %18, align 4, !tbaa !37
  %20 = load ptr, ptr %4, align 8, !tbaa !29
  %21 = getelementptr inbounds nuw %struct.UltimotionDecodeContext, ptr %20, i32 0, i32 2
  store i32 %19, ptr %21, align 4, !tbaa !38
  %22 = load ptr, ptr %4, align 8, !tbaa !29
  %23 = getelementptr inbounds nuw %struct.UltimotionDecodeContext, ptr %22, i32 0, i32 1
  %24 = load i32, ptr %23, align 8, !tbaa !36
  %25 = sdiv i32 %24, 8
  %26 = load ptr, ptr %4, align 8, !tbaa !29
  %27 = getelementptr inbounds nuw %struct.UltimotionDecodeContext, ptr %26, i32 0, i32 2
  %28 = load i32, ptr %27, align 4, !tbaa !38
  %29 = sdiv i32 %28, 8
  %30 = mul nsw i32 %25, %29
  %31 = load ptr, ptr %4, align 8, !tbaa !29
  %32 = getelementptr inbounds nuw %struct.UltimotionDecodeContext, ptr %31, i32 0, i32 3
  store i32 %30, ptr %32, align 8, !tbaa !39
  %33 = load ptr, ptr %4, align 8, !tbaa !29
  %34 = getelementptr inbounds nuw %struct.UltimotionDecodeContext, ptr %33, i32 0, i32 3
  %35 = load i32, ptr %34, align 8, !tbaa !39
  %36 = icmp eq i32 %35, 0
  br i1 %36, label %37, label %38

37:                                               ; preds = %1
  store i32 -1094995529, ptr %2, align 4
  store i32 1, ptr %5, align 4
  br label %52

38:                                               ; preds = %1
  %39 = load ptr, ptr %3, align 8, !tbaa !4
  %40 = getelementptr inbounds nuw %struct.AVCodecContext, ptr %39, i32 0, i32 23
  store i32 6, ptr %40, align 8, !tbaa !40
  %41 = load ptr, ptr %4, align 8, !tbaa !29
  %42 = getelementptr inbounds nuw %struct.UltimotionDecodeContext, ptr %41, i32 0, i32 5
  store ptr @ulti_codebook, ptr %42, align 8, !tbaa !41
  %43 = call ptr @av_frame_alloc()
  %44 = load ptr, ptr %4, align 8, !tbaa !29
  %45 = getelementptr inbounds nuw %struct.UltimotionDecodeContext, ptr %44, i32 0, i32 4
  store ptr %43, ptr %45, align 8, !tbaa !42
  %46 = load ptr, ptr %4, align 8, !tbaa !29
  %47 = getelementptr inbounds nuw %struct.UltimotionDecodeContext, ptr %46, i32 0, i32 4
  %48 = load ptr, ptr %47, align 8, !tbaa !42
  %49 = icmp ne ptr %48, null
  br i1 %49, label %51, label %50

50:                                               ; preds = %38
  store i32 -12, ptr %2, align 4
  store i32 1, ptr %5, align 4
  br label %52

51:                                               ; preds = %38
  store i32 0, ptr %2, align 4
  store i32 1, ptr %5, align 4
  br label %52

52:                                               ; preds = %51, %50, %37
  call void @llvm.lifetime.end.p0(i64 8, ptr %4) #7
  %53 = load i32, ptr %2, align 4
  ret i32 %53
}