; Function Attrs: cold nounwind optsize uwtable
define internal range(i32 -1094995529, 1) i32 @ulti_decode_init(ptr noundef %0) #0 {
  %2 = getelementptr inbounds nuw i8, ptr %0, i64 32
  %3 = load ptr, ptr %2, align 8, !tbaa !4
  store ptr %0, ptr %3, align 8, !tbaa !27
  %4 = getelementptr inbounds nuw i8, ptr %0, i64 112
  %5 = load i32, ptr %4, align 8, !tbaa !32
  %6 = getelementptr inbounds nuw i8, ptr %3, i64 8
  store i32 %5, ptr %6, align 8, !tbaa !33
  %7 = getelementptr inbounds nuw i8, ptr %0, i64 116
  %8 = load i32, ptr %7, align 4, !tbaa !34
  %9 = getelementptr inbounds nuw i8, ptr %3, i64 12
  store i32 %8, ptr %9, align 4, !tbaa !35
  %10 = sdiv i32 %5, 8
  %11 = sdiv i32 %8, 8
  %12 = mul nsw i32 %11, %10
  %13 = getelementptr inbounds nuw i8, ptr %3, i64 16
  store i32 %12, ptr %13, align 8, !tbaa !36
  %14 = icmp eq i32 %12, 0
  br i1 %14, label %20, label %15

15:                                               ; preds = %1
  %16 = getelementptr inbounds nuw i8, ptr %0, i64 136
  store i32 6, ptr %16, align 8, !tbaa !37
  %17 = getelementptr inbounds nuw i8, ptr %3, i64 32
  store ptr @ulti_codebook, ptr %17, align 8, !tbaa !38
  %18 = tail call ptr @av_frame_alloc() #7
  %19 = getelementptr inbounds nuw i8, ptr %3, i64 24
  store ptr %18, ptr %19, align 8, !tbaa !39
  %.not = icmp eq ptr %18, null
  %. = select i1 %.not, i32 -12, i32 0
  br label %20

20:                                               ; preds = %15, %1
  %.0 = phi i32 [ -1094995529, %1 ], [ %., %15 ]
  ret i32 %.0
}